ccopy_reg
_reconstructor
p0
(cpandas.core.frame
DataFrame
p1
c__builtin__
object
p2
Ntp3
Rp4
(dp5
S'_metadata'
p6
(lp7
sS'_typ'
p8
S'dataframe'
p9
sS'_data'
p10
g0
(cpandas.core.internals
BlockManager
p11
g2
Ntp12
Rp13
((lp14
cpandas.indexes.base
_new_Index
p15
(cpandas.indexes.base
Index
p16
(dp17
S'data'
p18
cnumpy.core.multiarray
_reconstruct
p19
(cnumpy
ndarray
p20
(I0
tp21
S'b'
p22
tp23
Rp24
(I1
(I4
tp25
cnumpy
dtype
p26
(S'O8'
p27
I0
I1
tp28
Rp29
(I3
S'|'
p30
NNNI-1
I-1
I63
tp31
bI00
(lp32
S'ADDRESS'
p33
aS'NAME'
p34
aS'FORMATTED_ADDRESS'
p35
aS'STATION NUMBER'
p36
atp37
bsS'name'
p38
Nstp39
Rp40
ag15
(cpandas.indexes.range
RangeIndex
p41
(dp42
S'start'
p43
I0
sS'step'
p44
I1
sS'stop'
p45
I29
sg38
Nstp46
Rp47
a(lp48
g19
(g20
(I0
tp49
g22
tp50
Rp51
(I1
(I2
I29
tp52
g29
I00
(lp53
S'4550 Cowan Rd, GA'
p54
aS'1660 Mars Hill Rd, GA'
p55
aS'3540 Paul Samuel Rd, GA'
p56
aS'3800 Bells Ferry Rd, GA'
p57
aS'810 Brackett Rd, GA'
p58
aS'4431 Trickum Rd, GA'
p59
aS'2905 Library Ln, GA'
p60
aS'3892 Oak Ln, GA'
p61
aS'1298 Hilton Dr, GA'
p62
aS'4400 Lower Roswell Rd, GA'
p63
aS'580 Terrell Mill Rd, GA'
p64
aS'208 Barber Rd, GA'
p65
aS'1901 Cumberland Parkway, GA'
p66
aS'5656 Mableton Parkway, GA'
p67
aS'5075 Hiram Lithia Springs Rd, GA'
p68
aS'4700 Austell Rd, GA'
p69
aS'810 Hurt Rd, GA'
p70
aS'2049 Powder Springs Rd, GA'
p71
aS'1500 Powers Ferry Rd, GA'
p72
aS'2380 N Cobb Parkway, GA'
p73
aS'4336 Paces Ferry Rd, GA'
p74
aS'315 Hillcrest Dr, GA'
p75
aS'111 Ridgeway Rd, GA'
p76
aS'4640 Dallas Highway, GA'
p77
aS'3862 Cherokee St, GA'
p78
aS'3470 New Macland Rd, GA'
p79
aS'477 Veterans Memorial Highway, GA'
p80
aS'931 Windy Hill Rd, GA'
p81
aS'3858 Kemp Ridge Rd, GA'
p82
aS'Cobb County Fire Station Number 11'
p83
aS'Cobb County Fire Station Number 18'
p84
aS'Cobb County Fire Station Number 24'
p85
aS'Cobb County Fire Station Number 16'
p86
aS'Cobb County Fire Station Number 12'
p87
aS'Cobb County Fire Station  Number 25'
p88
aS'Cobb County Fire Station Number 14'
p89
aS'Cobb County Fire Station Number 15'
p90
aS'Cobb County Fire Station Number 20'
p91
aS'Cobb County Fire Station Number 21'
p92
aS'Cobb County Fire Station Number 3'
p93
aS'Cobb County Fire Station Number 2'
p94
aS'Cobb County Fire Station Number 4'
p95
aS'Cobb County Fire Station Number 1'
p96
aS'Cobb County Fire Station Number 6'
p97
aS'Cobb County Fire Station Number 22'
p98
aS'Cobb County Fire Station Number 7'
p99
aS'Cobb County Fire Station Number 10'
p100
aS'Cobb County Fire Station Number 19'
p101
aS'Cobb County Fire Station Number 8'
p102
aS'Cobb County Fire Station Number 5'
p103
aS'Cobb County Fire Station Number 9'
p104
aS'Cobb County Fire Station Number 17'
p105
aS'Cobb County Fire Station Number 13'
p106
aS'Cobb County Fire Station Number 26'
p107
aS'Cobb County Fire Station Number 23'
p108
aS'Cobb County Fire Station Number 27'
p109
aS'Cobb County Fire Station Number 30'
p110
aS'Cobb County Fire Station Number 28'
p111
atp112
bag19
(g20
(I0
tp113
g22
tp114
Rp115
(I1
(I1
I29
tp116
g29
I00
(lp117
V4550 Cowan Rd, Acworth, GA 30101, USA
p118
aV1660 Mars Hill Rd, Acworth, GA 30101, USA
p119
aV3540 Paul Samuel Rd NW, Kennesaw, GA 30152, USA
p120
aV3800 Bells Ferry Rd, Kennesaw, GA 30144, USA
p121
aV810 Brackett Rd, Marietta, GA 30066, USA
p122
aV4431 Trickum Rd, Marietta, GA 30066, USA
p123
aVLibrary Ln, Marietta, GA 30062, USA
p124
aV3892 Oak Ln, Marietta, GA 30062, USA
p125
aV1298 Hilton Dr, Marietta, GA 30062, USA
p126
aV4400 Lower Roswell Rd, Marietta, GA 30068, USA
p127
aV580 Terrell Mill Road SE, Marietta, GA 30067, USA
p128
aV208 Barber Rd, Marietta, GA 30060, USA
p129
aV1901 Cumberland Pkwy SE, Atlanta, GA 30339, USA
p130
aV5656 Mableton Pkwy SW, Mableton, GA 30126, USA
p131
aV5075 Hiram Lithia Springs Rd SW, Powder Springs, GA 30127, USA
p132
aV4700 Austell Rd, Austell, GA 30106, USA
p133
aV810 Hurt Rd, Austell, GA 30106, USA
p134
aV2049 Powder Springs Rd SW, Marietta, GA 30008, USA
p135
aV1500 Powers Ferry Rd SE, Marietta, GA 30067, USA
p136
aV2380 Cobb Pkwy N, Kennesaw, GA 30152, USA
p137
aV4336 Paces Ferry Rd SE, Atlanta, GA 30339, USA
p138
aV315 Hillcrest Dr, Montezuma, GA 31063, USA
p139
aV111 Ridgeway Rd, Milner, GA 30257, USA
p140
aV4640 Dallas Hwy, Powder Springs, GA 30127, USA
p141
aV3862 Cherokee St, Acworth, GA 30101, USA
p142
aV3470 New MacLand Rd, Powder Springs, GA 30127, USA
p143
aV477 Veterans Memorial Hwy SW, Mableton, GA 30126, USA
p144
aV931 Windy Hill Rd, Marietta, GA 30008, USA
p145
aV3858 Kemp Ridge Rd, Acworth, GA 30101, USA
p146
atp147
bag19
(g20
(I0
tp148
g22
tp149
Rp150
(I1
(I1
I29
tp151
g29
I00
(lp152
S'11'
p153
aS'18'
p154
aS'24'
p155
aS'16'
p156
aS'12'
p157
aS'25'
p158
aS'14'
p159
aS'15'
p160
aS'20'
p161
aS'21'
p162
aS'03'
p163
aS'02'
p164
aS'04'
p165
aS'01'
p166
aS'06'
p167
aS'22'
p168
aS'07'
p169
aS'10'
p170
aS'19'
p171
aS'08'
p172
aS'05'
p173
aS'09'
p174
aS'17'
p175
aS'13'
p176
aS'26'
p177
aS'23'
p178
aS'27'
p179
aS'30'
p180
aS'28'
p181
atp182
ba(lp183
g15
(g16
(dp184
g18
g19
(g20
(I0
tp185
g22
tp186
Rp187
(I1
(I2
tp188
g29
I00
(lp189
g33
ag34
atp190
bsg38
Nstp191
Rp192
ag15
(g16
(dp193
g18
g19
(g20
(I0
tp194
g22
tp195
Rp196
(I1
(I1
tp197
g29
I00
(lp198
g35
atp199
bsg38
Nstp200
Rp201
ag15
(g16
(dp202
g18
g19
(g20
(I0
tp203
g22
tp204
Rp205
(I1
(I1
tp206
g29
I00
(lp207
g36
atp208
bsg38
Nstp209
Rp210
a(dp211
S'0.14.1'
p212
(dp213
S'axes'
p214
g14
sS'blocks'
p215
(lp216
(dp217
S'mgr_locs'
p218
c__builtin__
slice
p219
(I0
I2
I1
tp220
Rp221
sS'values'
p222
g51
sa(dp223
g218
g219
(I2
I3
I1
tp224
Rp225
sg222
g115
sa(dp226
g218
g219
(I3
I4
I1
tp227
Rp228
sg222
g150
sasstp229
bsb.