ccopy_reg
_reconstructor
p0
(cpandas.core.frame
DataFrame
p1
c__builtin__
object
p2
Ntp3
Rp4
(dp5
S'_metadata'
p6
(lp7
sS'_typ'
p8
S'dataframe'
p9
sS'_data'
p10
g0
(cpandas.core.internals
BlockManager
p11
g2
Ntp12
Rp13
((lp14
cpandas.indexes.base
_new_Index
p15
(cpandas.indexes.base
Index
p16
(dp17
S'data'
p18
cnumpy.core.multiarray
_reconstruct
p19
(cnumpy
ndarray
p20
(I0
tp21
S'b'
p22
tp23
Rp24
(I1
(I3
tp25
cnumpy
dtype
p26
(S'O8'
p27
I0
I1
tp28
Rp29
(I3
S'|'
p30
NNNI-1
I-1
I63
tp31
bI00
(lp32
S'ADDRESS'
p33
aS'NAME'
p34
aS'FORMATTED_ADDRESS'
p35
atp36
bsS'name'
p37
Nstp38
Rp39
ag15
(cpandas.indexes.range
RangeIndex
p40
(dp41
S'start'
p42
I0
sS'step'
p43
I1
sS'stop'
p44
I29
sg37
Nstp45
Rp46
a(lp47
g19
(g20
(I0
tp48
g22
tp49
Rp50
(I1
(I2
I29
tp51
g29
I00
(lp52
S'4550 Cowan Rd, GA'
p53
aS'1660 Mars Hill Rd, GA'
p54
aS'3540 Paul Samuel Rd, GA'
p55
aS'3800 Bells Ferry Rd, GA'
p56
aS'810 Brackett Rd, GA'
p57
aS'4431 Trickum Rd, GA'
p58
aS'2905 Library Ln, GA'
p59
aS'3892 Oak Ln, GA'
p60
aS'1298 Hilton Dr, GA'
p61
aS'4400 Lower Roswell Rd, GA'
p62
aS'580 Terrell Mill Rd, GA'
p63
aS'208 Barber Rd, GA'
p64
aS'1901 Cumberland Parkway, GA'
p65
aS'5656 Mableton Parkway, GA'
p66
aS'5075 Hiram Lithia Springs Rd, GA'
p67
aS'4700 Austell Rd, GA'
p68
aS'810 Hurt Rd, GA'
p69
aS'2049 Powder Springs Rd, GA'
p70
aS'1500 Powers Ferry Rd, GA'
p71
aS'2380 N Cobb Parkway, GA'
p72
aS'4336 Paces Ferry Rd, GA'
p73
aS'315 Hillcrest Dr, GA'
p74
aS'111 Ridgeway Rd, GA'
p75
aS'4640 Dallas Highway, GA'
p76
aS'3862 Cherokee St, GA'
p77
aS'3470 New Macland Rd, GA'
p78
aS'477 Veterans Memorial Highway, GA'
p79
aS'931 Windy Hill Rd, GA'
p80
aS'3858 Kemp Ridge Rd, GA'
p81
aS'Cobb County Fire Station Number 11'
p82
aS'Cobb County Fire Station Number 18'
p83
aS'Cobb County Fire Station Number 24'
p84
aS'Cobb County Fire Station Number 16'
p85
aS'Cobb County Fire Station Number 12'
p86
aS'Cobb County Fire Station  Number 25'
p87
aS'Cobb County Fire Station Number 14'
p88
aS'Cobb County Fire Station Number 15'
p89
aS'Cobb County Fire Station Number 20'
p90
aS'Cobb County Fire Station Number 21'
p91
aS'Cobb County Fire Station Number 3'
p92
aS'Cobb County Fire Station Number 2'
p93
aS'Cobb County Fire Station Number 4'
p94
aS'Cobb County Fire Station Number 1'
p95
aS'Cobb County Fire Station Number 6'
p96
aS'Cobb County Fire Station Number 22'
p97
aS'Cobb County Fire Station Number 7'
p98
aS'Cobb County Fire Station Number 10'
p99
aS'Cobb County Fire Station Number 19'
p100
aS'Cobb County Fire Station Number 8'
p101
aS'Cobb County Fire Station Number 5'
p102
aS'Cobb County Fire Station Number 9'
p103
aS'Cobb County Fire Station Number 17'
p104
aS'Cobb County Fire Station Number 13'
p105
aS'Cobb County Fire Station Number 26'
p106
aS'Cobb County Fire Station Number 23'
p107
aS'Cobb County Fire Station Number 27'
p108
aS'Cobb County Fire Station Number 30'
p109
aS'Cobb County Fire Station Number 28'
p110
atp111
bag19
(g20
(I0
tp112
g22
tp113
Rp114
(I1
(I1
I29
tp115
g29
I00
(lp116
V4550 Cowan Rd, Acworth, GA 30101, USA
p117
aV1660 Mars Hill Rd, Acworth, GA 30101, USA
p118
aV3540 Paul Samuel Rd NW, Kennesaw, GA 30152, USA
p119
aV3800 Bells Ferry Rd, Kennesaw, GA 30144, USA
p120
aV810 Brackett Rd, Marietta, GA 30066, USA
p121
aV4431 Trickum Rd, Marietta, GA 30066, USA
p122
aVLibrary Ln, Marietta, GA 30062, USA
p123
aV3892 Oak Ln, Marietta, GA 30062, USA
p124
aV1298 Hilton Dr, Marietta, GA 30062, USA
p125
aV4400 Lower Roswell Rd, Marietta, GA 30068, USA
p126
aV580 Terrell Mill Rd, Marietta, GA 30067, USA
p127
aV208 Barber Rd, Marietta, GA 30060, USA
p128
aV1901 Cumberland Pkwy SE, Atlanta, GA 30339, USA
p129
aV5656 Mableton Pkwy SW, Mableton, GA 30126, USA
p130
aV5075 Hiram Lithia Springs Rd SW, Powder Springs, GA 30127, USA
p131
aV4700 Austell Rd, Austell, GA 30106, USA
p132
aV810 Hurt Rd, Austell, GA 30106, USA
p133
aV2049 Powder Springs Rd SW, Marietta, GA 30008, USA
p134
aV1500 Powers Ferry Rd SE, Marietta, GA 30067, USA
p135
aV2380 Cobb Pkwy N, Kennesaw, GA 30152, USA
p136
aV4336 Paces Ferry Rd, Atlanta, GA 30339, USA
p137
aV315 Hillcrest Dr, Montezuma, GA 31063, USA
p138
aV111 Ridgeway Rd, Milner, GA 30257, USA
p139
aV4640 Dallas Hwy, Powder Springs, GA 30127, USA
p140
aV3862 Cherokee St, Acworth, GA 30101, USA
p141
aV3470 New MacLand Rd, Powder Springs, GA 30127, USA
p142
aV477 Veterans Memorial Hwy SW, Mableton, GA 30126, USA
p143
aV931 Windy Hill Rd, Marietta, GA 30008, USA
p144
aV3858 Kemp Ridge Rd, Acworth, GA 30101, USA
p145
atp146
ba(lp147
g15
(g16
(dp148
g18
g19
(g20
(I0
tp149
g22
tp150
Rp151
(I1
(I2
tp152
g29
I00
(lp153
g33
ag34
atp154
bsg37
Nstp155
Rp156
ag15
(g16
(dp157
g18
g19
(g20
(I0
tp158
g22
tp159
Rp160
(I1
(I1
tp161
g29
I00
(lp162
g35
atp163
bsg37
Nstp164
Rp165
a(dp166
S'0.14.1'
p167
(dp168
S'axes'
p169
g14
sS'blocks'
p170
(lp171
(dp172
S'mgr_locs'
p173
c__builtin__
slice
p174
(I0
I2
I1
tp175
Rp176
sS'values'
p177
g50
sa(dp178
g173
g174
(I2
I3
I1
tp179
Rp180
sg177
g114
sasstp181
bsb.